; Function Attrs: mustprogress nofree norecurse nosync nounwind willreturn memory(read, inaccessiblemem: none) uwtable
define dso_local noundef i32 @_ZN11V3LexerBase12yy_top_stateEv(ptr nocapture noundef nonnull readonly align 8 dereferenceable(732) %0) local_unnamed_addr #16 align 2 {
  %2 = getelementptr inbounds i8, ptr %0, i64 40
  %3 = load ptr, ptr %2, align 8
  %4 = getelementptr inbounds i8, ptr %0, i64 28
  %5 = load i32, ptr %4, align 4
  %6 = sext i32 %5 to i64
  %7 = getelementptr i32, ptr %3, i64 %6
  %8 = getelementptr i8, ptr %7, i64 -4
  %9 = load i32, ptr %8, align 4
  ret i32 %9
}